; Function Attrs: nounwind uwtable
define hidden void @spl_array_iterator_append(ptr nocapture noundef readonly %0, ptr noundef %1) local_unnamed_addr #0 {
  %3 = load ptr, ptr %0, align 8
  %4 = getelementptr inbounds i8, ptr %3, i64 -68
  %5 = load i32, ptr %4, align 4
  %6 = and i32 %5, 33554432
  %.not6.i = icmp eq i32 %6, 0
  br i1 %.not6.i, label %._crit_edge.i, label %.lr.ph.i

.lr.ph.i:                                         ; preds = %2, %.lr.ph.i
  %.pn = phi ptr [ %7, %.lr.ph.i ], [ %3, %2 ]
  %.07.i = getelementptr inbounds i8, ptr %.pn, i64 -88
  %7 = load ptr, ptr %.07.i, align 8
  %8 = getelementptr inbounds i8, ptr %7, i64 -68
  %9 = load i32, ptr %8, align 4
  %10 = and i32 %9, 33554432
  %.not.i = icmp eq i32 %10, 0
  br i1 %.not.i, label %._crit_edge.i, label %.lr.ph.i

._crit_edge.i:                                    ; preds = %.lr.ph.i, %2
  %11 = phi ptr [ %3, %2 ], [ %7, %.lr.ph.i ]
  %.lcssa.i = phi i32 [ %5, %2 ], [ %9, %.lr.ph.i ]
  %12 = and i32 %.lcssa.i, 16777216
  %.not5.i = icmp eq i32 %12, 0
  br i1 %.not5.i, label %spl_array_is_object.exit, label %spl_array_is_object.exit.thread

spl_array_is_object.exit:                         ; preds = %._crit_edge.i
  %13 = getelementptr inbounds i8, ptr %11, i64 -80
  %14 = load i8, ptr %13, align 8
  %15 = icmp eq i8 %14, 8
  br i1 %15, label %spl_array_is_object.exit.thread, label %21

spl_array_is_object.exit.thread:                  ; preds = %._crit_edge.i, %spl_array_is_object.exit
  %16 = getelementptr inbounds i8, ptr %3, i64 16
  %17 = load ptr, ptr %16, align 8
  %18 = getelementptr inbounds i8, ptr %17, i64 8
  %19 = load ptr, ptr %18, align 8
  %20 = getelementptr inbounds i8, ptr %19, i64 24
  tail call void (ptr, ptr, ...) @zend_throw_error(ptr noundef null, ptr noundef nonnull @.str.2, ptr noundef nonnull %20) #11
  br label %22

21:                                               ; preds = %spl_array_is_object.exit
  tail call fastcc void @spl_array_write_dimension_ex(i32 noundef 1, ptr noundef %3, ptr noundef null, ptr noundef %1)
  br label %22

22:                                               ; preds = %21, %spl_array_is_object.exit.thread
  ret void
}